target datalayout = "e-m:e-p270:32:32-p271:32:32-p272:64:64-i64:64-i128:128-f80:128-n8:16:32:64-S128"
target triple = "x86_64-pc-linux-gnu"

%struct.DdManager = type { %struct.DdNode, ptr, ptr, ptr, ptr, ptr, ptr, ptr, i32, i32, double, double, double, i32, i32, i32, i32, i32, i32, ptr, ptr, %struct.DdSubtable, i32, i32, i32, i32, i32, i32, i32, double, i32, i32, i32, ptr, i64, double, i32, ptr, ptr, ptr, ptr, ptr, ptr, ptr, i32, ptr, ptr, ptr, ptr, ptr, ptr, i32, i32, i32, double, i32, i32, i32, i32, double, double, i32, i32, i32, i32, i32, i32, i32, i32, i32, ptr, ptr, i32, i32, i32, i32, i32, i32, ptr, ptr, ptr, ptr, ptr, ptr, ptr, ptr, i32, i64, i64, i64, i32, i64, i64, double, double, double, double, double, double, i32, ptr, ptr, i64 }
%struct.DdNode = type { i32, i32, ptr, %union.anon, i64 }
%union.anon = type { %struct.DdChildren }
%struct.DdChildren = type { ptr, ptr }
%struct.DdSubtable = type { ptr, i32, i32, i32, i32, i32, i32, i32, i32, i32, i32, i32 }

; Function Attrs: nounwind uwtable
define ptr @extraZddSelectOneSubset(ptr noundef %0, ptr noundef %1) #0 {
  %3 = alloca ptr, align 8
  %4 = alloca ptr, align 8
  %5 = alloca ptr, align 8
  %6 = alloca ptr, align 8
  %7 = alloca i32, align 4
  %8 = alloca ptr, align 8
  %9 = alloca ptr, align 8
  %10 = alloca ptr, align 8
  store ptr %0, ptr %4, align 8, !tbaa !3
  store ptr %1, ptr %5, align 8, !tbaa !8
  call void @llvm.lifetime.start.p0(i64 8, ptr %6) #6
  %11 = load ptr, ptr %5, align 8, !tbaa !8
  %12 = load ptr, ptr %4, align 8, !tbaa !3
  %13 = getelementptr inbounds nuw %struct.DdManager, ptr %12, i32 0, i32 2
  %14 = load ptr, ptr %13, align 8, !tbaa !43
  %15 = icmp eq ptr %11, %14
  br i1 %15, label %16, label %20

16:                                               ; preds = %2
  %17 = load ptr, ptr %4, align 8, !tbaa !3
  %18 = getelementptr inbounds nuw %struct.DdManager, ptr %17, i32 0, i32 2
  %19 = load ptr, ptr %18, align 8, !tbaa !43
  store ptr %19, ptr %3, align 8
  store i32 1, ptr %7, align 4
  br label %102

20:                                               ; preds = %2
  %21 = load ptr, ptr %5, align 8, !tbaa !8
  %22 = load ptr, ptr %4, align 8, !tbaa !3
  %23 = getelementptr inbounds nuw %struct.DdManager, ptr %22, i32 0, i32 1
  %24 = load ptr, ptr %23, align 8, !tbaa !38
  %25 = icmp eq ptr %21, %24
  br i1 %25, label %26, label %30

26:                                               ; preds = %20
  %27 = load ptr, ptr %4, align 8, !tbaa !3
  %28 = getelementptr inbounds nuw %struct.DdManager, ptr %27, i32 0, i32 1
  %29 = load ptr, ptr %28, align 8, !tbaa !38
  store ptr %29, ptr %3, align 8
  store i32 1, ptr %7, align 4
  br label %102

30:                                               ; preds = %20
  %31 = load ptr, ptr %4, align 8, !tbaa !3
  %32 = load ptr, ptr %5, align 8, !tbaa !8
  %33 = call ptr @cuddCacheLookup1Zdd(ptr noundef %31, ptr noundef @extraZddSelectOneSubset, ptr noundef %32)
  store ptr %33, ptr %6, align 8, !tbaa !8
  %34 = icmp ne ptr %33, null
  br i1 %34, label %35, label %37

35:                                               ; preds = %30
  %36 = load ptr, ptr %6, align 8, !tbaa !8
  store ptr %36, ptr %3, align 8
  store i32 1, ptr %7, align 4
  br label %102

37:                                               ; preds = %30
  call void @llvm.lifetime.start.p0(i64 8, ptr %8) #6
  call void @llvm.lifetime.start.p0(i64 8, ptr %9) #6
  call void @llvm.lifetime.start.p0(i64 8, ptr %10) #6
  %38 = load ptr, ptr %5, align 8, !tbaa !8
  %39 = getelementptr inbounds nuw %struct.DdNode, ptr %38, i32 0, i32 3
  %40 = getelementptr inbounds nuw %struct.DdChildren, ptr %39, i32 0, i32 1
  %41 = load ptr, ptr %40, align 8, !tbaa !41
  store ptr %41, ptr %8, align 8, !tbaa !8
  %42 = load ptr, ptr %5, align 8, !tbaa !8
  %43 = getelementptr inbounds nuw %struct.DdNode, ptr %42, i32 0, i32 3
  %44 = getelementptr inbounds nuw %struct.DdChildren, ptr %43, i32 0, i32 0
  %45 = load ptr, ptr %44, align 8, !tbaa !41
  store ptr %45, ptr %9, align 8, !tbaa !8
  %46 = load ptr, ptr %8, align 8, !tbaa !8
  %47 = load ptr, ptr %4, align 8, !tbaa !3
  %48 = getelementptr inbounds nuw %struct.DdManager, ptr %47, i32 0, i32 2
  %49 = load ptr, ptr %48, align 8, !tbaa !43
  %50 = icmp ne ptr %46, %49
  br i1 %50, label %51, label %59

51:                                               ; preds = %37
  %52 = load ptr, ptr %4, align 8, !tbaa !3
  %53 = load ptr, ptr %8, align 8, !tbaa !8
  %54 = call ptr @extraZddSelectOneSubset(ptr noundef %52, ptr noundef %53)
  store ptr %54, ptr %6, align 8, !tbaa !8
  %55 = load ptr, ptr %6, align 8, !tbaa !8
  %56 = icmp eq ptr %55, null
  br i1 %56, label %57, label %58

57:                                               ; preds = %51
  store ptr null, ptr %3, align 8
  store i32 1, ptr %7, align 4
  br label %101

58:                                               ; preds = %51
  br label %96

59:                                               ; preds = %37
  %60 = load ptr, ptr %4, align 8, !tbaa !3
  %61 = load ptr, ptr %9, align 8, !tbaa !8
  %62 = call ptr @extraZddSelectOneSubset(ptr noundef %60, ptr noundef %61)
  store ptr %62, ptr %6, align 8, !tbaa !8
  %63 = load ptr, ptr %6, align 8, !tbaa !8
  %64 = icmp eq ptr %63, null
  br i1 %64, label %65, label %66

65:                                               ; preds = %59
  store ptr null, ptr %3, align 8
  store i32 1, ptr %7, align 4
  br label %101

66:                                               ; preds = %59
  %67 = load ptr, ptr %6, align 8, !tbaa !8
  %68 = ptrtoint ptr %67 to i64
  %69 = and i64 %68, -2
  %70 = inttoptr i64 %69 to ptr
  %71 = getelementptr inbounds nuw %struct.DdNode, ptr %70, i32 0, i32 1
  %72 = load i32, ptr %71, align 4, !tbaa !51
  %73 = add i32 %72, 1
  store i32 %73, ptr %71, align 4, !tbaa !51
  %74 = load ptr, ptr %4, align 8, !tbaa !3
  %75 = load ptr, ptr %5, align 8, !tbaa !8
  %76 = getelementptr inbounds nuw %struct.DdNode, ptr %75, i32 0, i32 0
  %77 = load i32, ptr %76, align 8, !tbaa !39
  %78 = load ptr, ptr %6, align 8, !tbaa !8
  store ptr %78, ptr %10, align 8, !tbaa !8
  %79 = load ptr, ptr %4, align 8, !tbaa !3
  %80 = getelementptr inbounds nuw %struct.DdManager, ptr %79, i32 0, i32 2
  %81 = load ptr, ptr %80, align 8, !tbaa !43
  %82 = call ptr @cuddZddGetNode(ptr noundef %74, i32 noundef %77, ptr noundef %78, ptr noundef %81)
  store ptr %82, ptr %6, align 8, !tbaa !8
  %83 = load ptr, ptr %6, align 8, !tbaa !8
  %84 = icmp eq ptr %83, null
  br i1 %84, label %85, label %88

85:                                               ; preds = %66
  %86 = load ptr, ptr %4, align 8, !tbaa !3
  %87 = load ptr, ptr %10, align 8, !tbaa !8
  call void @Cudd_RecursiveDerefZdd(ptr noundef %86, ptr noundef %87)
  store ptr null, ptr %3, align 8
  store i32 1, ptr %7, align 4
  br label %101

88:                                               ; preds = %66
  %89 = load ptr, ptr %10, align 8, !tbaa !8
  %90 = ptrtoint ptr %89 to i64
  %91 = and i64 %90, -2
  %92 = inttoptr i64 %91 to ptr
  %93 = getelementptr inbounds nuw %struct.DdNode, ptr %92, i32 0, i32 1
  %94 = load i32, ptr %93, align 4, !tbaa !51
  %95 = add i32 %94, -1
  store i32 %95, ptr %93, align 4, !tbaa !51
  br label %96

96:                                               ; preds = %88, %58
  %97 = load ptr, ptr %4, align 8, !tbaa !3
  %98 = load ptr, ptr %5, align 8, !tbaa !8
  %99 = load ptr, ptr %6, align 8, !tbaa !8
  call void @cuddCacheInsert1(ptr noundef %97, ptr noundef @extraZddSelectOneSubset, ptr noundef %98, ptr noundef %99)
  %100 = load ptr, ptr %6, align 8, !tbaa !8
  store ptr %100, ptr %3, align 8
  store i32 1, ptr %7, align 4
  br label %101

101:                                              ; preds = %96, %85, %65, %57
  call void @llvm.lifetime.end.p0(i64 8, ptr %10) #6
  call void @llvm.lifetime.end.p0(i64 8, ptr %9) #6
  call void @llvm.lifetime.end.p0(i64 8, ptr %8) #6
  br label %102

102:                                              ; preds = %101, %35, %26, %16
  call void @llvm.lifetime.end.p0(i64 8, ptr %6) #6
  %103 = load ptr, ptr %3, align 8
  ret ptr %103
}