; Function Attrs: nounwind uwtable
define ptr @extraZddSelectOneSubset(ptr noundef %0, ptr noundef %1) #0 {
  %3 = getelementptr inbounds nuw i8, ptr %0, i64 48
  %4 = load ptr, ptr %3, align 8, !tbaa !40
  %5 = icmp eq ptr %1, %4
  br i1 %5, label %40, label %6

6:                                                ; preds = %2
  %7 = getelementptr inbounds nuw i8, ptr %0, i64 40
  %8 = load ptr, ptr %7, align 8, !tbaa !35
  %9 = icmp eq ptr %1, %8
  br i1 %9, label %40, label %10

10:                                               ; preds = %6
  %11 = tail call ptr @cuddCacheLookup1Zdd(ptr noundef nonnull %0, ptr noundef nonnull @extraZddSelectOneSubset, ptr noundef %1) #10
  %.not = icmp eq ptr %11, null
  br i1 %.not, label %12, label %40

12:                                               ; preds = %10
  %13 = getelementptr inbounds nuw i8, ptr %1, i64 24
  %14 = load ptr, ptr %13, align 8, !tbaa !38
  %15 = load ptr, ptr %3, align 8, !tbaa !40
  %.not42 = icmp eq ptr %14, %15
  br i1 %.not42, label %19, label %16

16:                                               ; preds = %12
  %17 = tail call ptr @extraZddSelectOneSubset(ptr noundef nonnull %0, ptr noundef %14)
  %18 = icmp eq ptr %17, null
  br i1 %18, label %40, label %39

19:                                               ; preds = %12
  %20 = getelementptr inbounds nuw i8, ptr %1, i64 16
  %21 = load ptr, ptr %20, align 8, !tbaa !38
  %22 = tail call ptr @extraZddSelectOneSubset(ptr noundef nonnull %0, ptr noundef %21)
  %23 = icmp eq ptr %22, null
  br i1 %23, label %40, label %24

24:                                               ; preds = %19
  %25 = ptrtoint ptr %22 to i64
  %26 = and i64 %25, -2
  %27 = inttoptr i64 %26 to ptr
  %28 = getelementptr inbounds nuw i8, ptr %27, i64 4
  %29 = load i32, ptr %28, align 4, !tbaa !47
  %30 = add i32 %29, 1
  store i32 %30, ptr %28, align 4, !tbaa !47
  %31 = load i32, ptr %1, align 8, !tbaa !36
  %32 = load ptr, ptr %3, align 8, !tbaa !40
  %33 = tail call ptr @cuddZddGetNode(ptr noundef nonnull %0, i32 noundef %31, ptr noundef nonnull %22, ptr noundef %32) #10
  %34 = icmp eq ptr %33, null
  br i1 %34, label %35, label %36

35:                                               ; preds = %24
  tail call void @Cudd_RecursiveDerefZdd(ptr noundef nonnull %0, ptr noundef nonnull %22) #10
  br label %40

36:                                               ; preds = %24
  %37 = load i32, ptr %28, align 4, !tbaa !47
  %38 = add i32 %37, -1
  store i32 %38, ptr %28, align 4, !tbaa !47
  br label %39

39:                                               ; preds = %16, %36
  %.033 = phi ptr [ %17, %16 ], [ %33, %36 ]
  tail call void @cuddCacheInsert1(ptr noundef nonnull %0, ptr noundef nonnull @extraZddSelectOneSubset, ptr noundef nonnull %1, ptr noundef nonnull %.033) #10
  br label %40

40:                                               ; preds = %35, %39, %16, %19, %10, %6, %2
  %.0 = phi ptr [ %4, %2 ], [ %8, %6 ], [ %11, %10 ], [ %.033, %39 ], [ null, %35 ], [ null, %16 ], [ null, %19 ]
  ret ptr %.0
}